; Function Attrs: mustprogress nofree norecurse nosync nounwind willreturn memory(argmem: write) uwtable
define void @_ZN5faiss18IndexRowwiseMinMaxC2Ev(ptr noundef nonnull writeonly align 8 captures(none) dereferenceable(49) initializes((0, 12), (16, 26), (28, 36), (40, 49)) %0) unnamed_addr #7 align 2 {
  %2 = getelementptr inbounds nuw i8, ptr %0, i64 8
  store i32 0, ptr %2, align 8, !tbaa !29
  %3 = getelementptr inbounds nuw i8, ptr %0, i64 16
  store i64 0, ptr %3, align 8, !tbaa !73
  %4 = getelementptr inbounds nuw i8, ptr %0, i64 24
  store i8 0, ptr %4, align 8, !tbaa !74
  %5 = getelementptr inbounds nuw i8, ptr %0, i64 25
  store i8 1, ptr %5, align 1, !tbaa !75
  %6 = getelementptr inbounds nuw i8, ptr %0, i64 28
  store i32 1, ptr %6, align 4, !tbaa !72
  %7 = getelementptr inbounds nuw i8, ptr %0, i64 32
  store float 0.000000e+00, ptr %7, align 8, !tbaa !76
  %8 = getelementptr inbounds nuw i8, ptr %0, i64 40
  store ptr null, ptr %8, align 8, !tbaa !28
  %9 = getelementptr inbounds nuw i8, ptr %0, i64 48
  store i8 0, ptr %9, align 8, !tbaa !18
  store ptr getelementptr inbounds nuw inrange(-16, 192) (i8, ptr @_ZTVN5faiss18IndexRowwiseMinMaxE, i64 16), ptr %0, align 8, !tbaa !16
  ret void
}